; Function Attrs: nounwind uwtable
define internal void @ff_tx_fft_int32_c(ptr noundef readonly captures(none) %0, ptr noundef %1, ptr noundef readonly captures(none) %2, i64 noundef %3) #3 {
  %5 = getelementptr inbounds nuw i8, ptr %0, i64 128
  %6 = load i64, ptr %5, align 8, !tbaa !53
  %7 = and i64 %6, 1
  %.not = icmp eq i64 %7, 0
  br i1 %.not, label %11, label %8

8:                                                ; preds = %4
  %9 = getelementptr inbounds nuw i8, ptr %0, i64 24
  %10 = load ptr, ptr %9, align 8, !tbaa !54
  br label %11

11:                                               ; preds = %4, %8
  %12 = phi ptr [ %10, %8 ], [ %1, %4 ]
  %13 = getelementptr inbounds nuw i8, ptr %0, i64 32
  %14 = load ptr, ptr %13, align 8, !tbaa !55
  %15 = getelementptr inbounds nuw i8, ptr %14, i64 8
  %16 = load ptr, ptr %15, align 8, !tbaa !56
  %17 = load i32, ptr %0, align 8, !tbaa !16
  %18 = icmp sgt i32 %17, 0
  br i1 %18, label %.lr.ph.preheader, label %._crit_edge

.lr.ph.preheader:                                 ; preds = %11
  %wide.trip.count = zext nneg i32 %17 to i64
  br label %.lr.ph

._crit_edge.loopexit:                             ; preds = %.lr.ph
  %.pre = load ptr, ptr %13, align 8, !tbaa !55
  br label %._crit_edge

._crit_edge:                                      ; preds = %._crit_edge.loopexit, %11
  %19 = phi ptr [ %.pre, %._crit_edge.loopexit ], [ %14, %11 ]
  %20 = getelementptr inbounds nuw i8, ptr %0, i64 40
  %21 = load ptr, ptr %20, align 8, !tbaa !4
  tail call void %21(ptr noundef %19, ptr noundef %1, ptr noundef %12, i64 noundef %3) #16
  ret void

.lr.ph:                                           ; preds = %.lr.ph.preheader, %.lr.ph
  %indvars.iv = phi i64 [ 0, %.lr.ph.preheader ], [ %indvars.iv.next, %.lr.ph ]
  %22 = getelementptr inbounds nuw %struct.AVComplexInt32, ptr %12, i64 %indvars.iv
  %23 = getelementptr inbounds nuw i32, ptr %16, i64 %indvars.iv
  %24 = load i32, ptr %23, align 4, !tbaa !10
  %25 = sext i32 %24 to i64
  %26 = getelementptr inbounds %struct.AVComplexInt32, ptr %2, i64 %25
  %27 = load i64, ptr %26, align 4
  store i64 %27, ptr %22, align 4
  %indvars.iv.next = add nuw nsw i64 %indvars.iv, 1
  %exitcond.not = icmp eq i64 %indvars.iv.next, %wide.trip.count
  br i1 %exitcond.not, label %._crit_edge.loopexit, label %.lr.ph, !llvm.loop !57
}